target datalayout = "e-m:e-p270:32:32-p271:32:32-p272:64:64-i64:64-i128:128-f80:128-n8:16:32:64-S128"
target triple = "x86_64-pc-linux-gnu"

; Function Attrs: nounwind uwtable
define internal i32 @get_lin_h(i16 noundef signext %0, i32 noundef %1) #1 {
  %3 = alloca i16, align 2
  %4 = alloca i32, align 4
  store i16 %0, ptr %3, align 2, !tbaa !93
  store i32 %1, ptr %4, align 4, !tbaa !49
  %5 = load i32, ptr %4, align 4, !tbaa !49
  %6 = sdiv i32 %5, 2
  %7 = sext i32 %6 to i64
  %8 = load i16, ptr %3, align 2, !tbaa !93
  %9 = sext i16 %8 to i64
  %10 = load i32, ptr %4, align 4, !tbaa !49
  %11 = sdiv i32 %10, 2
  %12 = sext i32 %11 to i64
  %13 = call i64 @av_rescale(i64 noundef %9, i64 noundef %12, i64 noundef 32767) #15
  %14 = sub nsw i64 %7, %13
  %15 = trunc i64 %14 to i32
  ret i32 %15
}