; Function Attrs: mustprogress nofree nosync nounwind willreturn memory(none) uwtable
define internal i32 @get_lin_h(i16 noundef signext %0, i32 noundef %1) #8 {
  %3 = sdiv i32 %1, 2
  %4 = sext i32 %3 to i64
  %5 = sext i16 %0 to i64
  %6 = tail call i64 @av_rescale(i64 noundef %5, i64 noundef %4, i64 noundef 32767) #18
  %7 = trunc i64 %6 to i32
  %8 = sub i32 %3, %7
  ret i32 %8
}